; Function Attrs: mustprogress nounwind uwtable
define dso_local noundef zeroext i1 @_ZN4llvm11MCAssembler15registerSectionERNS_9MCSectionE(ptr noundef nonnull align 8 dereferenceable(372) %0, ptr noundef nonnull align 8 dereferenceable(148) %1) local_unnamed_addr #0 align 2 {
  %3 = getelementptr inbounds nuw i8, ptr %1, i64 48
  %4 = load i8, ptr %3, align 8
  %5 = and i8 %4, 8
  %.not = icmp eq i8 %5, 0
  br i1 %.not, label %6, label %21

6:                                                ; preds = %2
  %7 = getelementptr inbounds nuw i8, ptr %0, i64 40
  %8 = tail call noundef i64 @_ZNK4llvm15SmallVectorBaseIjE4sizeEv(ptr noundef nonnull align 8 dereferenceable(16) %7) #11
  %9 = add i64 %8, 1
  %10 = tail call noundef i64 @_ZNK4llvm15SmallVectorBaseIjE8capacityEv(ptr noundef nonnull align 8 dereferenceable(16) %7) #11
  %.not.i.i.i = icmp ugt i64 %9, %10
  br i1 %.not.i.i.i, label %11, label %_ZN4llvm23SmallVectorTemplateBaseIPNS_9MCSectionELb1EE9push_backES2_.exit

11:                                               ; preds = %6
  %12 = getelementptr inbounds i8, ptr %0, i64 56
  tail call void @_ZN4llvm15SmallVectorBaseIjE8grow_podEPvmm(ptr noundef nonnull align 8 dereferenceable(16) %7, ptr noundef nonnull %12, i64 noundef %9, i64 noundef 8) #11
  br label %_ZN4llvm23SmallVectorTemplateBaseIPNS_9MCSectionELb1EE9push_backES2_.exit

_ZN4llvm23SmallVectorTemplateBaseIPNS_9MCSectionELb1EE9push_backES2_.exit: ; preds = %6, %11
  %13 = load ptr, ptr %7, align 8
  %14 = tail call noundef i64 @_ZNK4llvm15SmallVectorBaseIjE4sizeEv(ptr noundef nonnull align 8 dereferenceable(16) %7) #11
  %15 = getelementptr inbounds ptr, ptr %13, i64 %14
  %16 = ptrtoint ptr %1 to i64
  store i64 %16, ptr %15, align 1
  %17 = tail call noundef i64 @_ZNK4llvm15SmallVectorBaseIjE4sizeEv(ptr noundef nonnull align 8 dereferenceable(16) %7) #11
  %18 = add i64 %17, 1
  tail call void @_ZN4llvm15SmallVectorBaseIjE8set_sizeEm(ptr noundef nonnull align 8 dereferenceable(16) %7, i64 noundef %18) #11
  %19 = load i8, ptr %3, align 8
  %20 = or i8 %19, 8
  store i8 %20, ptr %3, align 8
  br label %21

21:                                               ; preds = %2, %_ZN4llvm23SmallVectorTemplateBaseIPNS_9MCSectionELb1EE9push_backES2_.exit
  ret i1 %.not
}